---
triple:          'arm64-apple-darwin'
binary-path:     '/Users/kr315/Desktop/_dev/sketchbook/cpp/bust'
relocations:
  - { offsetInCU: 0x4A, offset: 0x4A, size: 0x8, addend: 0x0, symName: __ZN5boost6lambda12_GLOBAL__N_15free1E, symObjAddr: 0x35FAD, symBinAddr: 0x100008000, symSize: 0x0 }
  - { offsetInCU: 0x63, offset: 0x63, size: 0x8, addend: 0x0, symName: __ZN5boost6lambda12_GLOBAL__N_15free2E, symObjAddr: 0x35FAE, symBinAddr: 0x100008001, symSize: 0x0 }
  - { offsetInCU: 0x7C, offset: 0x7C, size: 0x8, addend: 0x0, symName: __ZN5boost6lambda12_GLOBAL__N_15free3E, symObjAddr: 0x35FAF, symBinAddr: 0x100008002, symSize: 0x0 }
  - { offsetInCU: 0x241, offset: 0x241, size: 0x8, addend: 0x0, symName: __ZN5boost6lambda6detail12_GLOBAL__N_118constant_null_typeE, symObjAddr: 0x271E, symBinAddr: 0x100003E5E, symSize: 0x0 }
  - { offsetInCU: 0x344, offset: 0x344, size: 0x8, addend: 0x0, symName: __ZN5boost6lambda6detail6selectINS0_19lambda_functor_baseINS0_14bitwise_actionINS0_16leftshift_actionEEENS_6tuples5tupleIRNSt3__113basic_ostreamIcNS9_11char_traitsIcEEEENS0_14lambda_functorINS3_INS0_17arithmetic_actionINS0_15multiply_actionEEENS8_INSF_INS0_11placeholderILi1EEEEEKiNS7_9null_typeESN_SN_SN_SN_SN_SN_SN_EEEEEESN_SN_SN_SN_SN_SN_SN_SN_EEEESM_KSN_ST_ST_EENT_3sigINS8_IRT0_RT1_RT2_RT3_SN_SN_SN_SN_SN_SN_EEE4typeERKNSF_ISU_EESX_SZ_S11_S13_, symObjAddr: 0x1688, symBinAddr: 0x100002B9C, symSize: 0x44 }
  - { offsetInCU: 0x3D5, offset: 0x3D5, size: 0x8, addend: 0x0, symName: __ZN5boost6lambda6detail6selectIA2_KcKiKNS_6tuples9null_typeES8_S8_EERT_SA_RT0_RT1_RT2_RT3_, symObjAddr: 0x16F0, symBinAddr: 0x100002C04, symSize: 0x44 }
  - { offsetInCU: 0x466, offset: 0x466, size: 0x8, addend: 0x0, symName: __ZN5boost6lambda6detail6selectINSt3__113basic_ostreamIcNS3_11char_traitsIcEEEEKiKNS_6tuples9null_typeESB_SB_EERT_SD_RT0_RT1_RT2_RT3_, symObjAddr: 0x22C4, symBinAddr: 0x1000037D8, symSize: 0x44 }
  - { offsetInCU: 0x4F7, offset: 0x4F7, size: 0x8, addend: 0x0, symName: __ZN5boost6lambda6detail6selectINS0_19lambda_functor_baseINS0_17arithmetic_actionINS0_15multiply_actionEEENS_6tuples5tupleINS0_14lambda_functorINS0_11placeholderILi1EEEEEKiNS7_9null_typeESE_SE_SE_SE_SE_SE_SE_EEEESD_KSE_SH_SH_EENT_3sigINS8_IRT0_RT1_RT2_RT3_SE_SE_SE_SE_SE_SE_EEE4typeERKNS9_ISI_EESL_SN_SP_SR_, symObjAddr: 0x2330, symBinAddr: 0x100003844, symSize: 0x44 }
  - { offsetInCU: 0x588, offset: 0x588, size: 0x8, addend: 0x0, symName: __ZN5boost6lambda6detail10do_nothingIKiKNS_6tuples9null_typeES6_S6_EEvRT_RT0_RT1_RT2_, symObjAddr: 0x2398, symBinAddr: 0x1000038AC, symSize: 0x1C }
  - { offsetInCU: 0x5EE, offset: 0x5EE, size: 0x8, addend: 0x0, symName: __ZN5boost6lambda6detail6selectINS0_11placeholderILi1EEEKiKNS_6tuples9null_typeES8_S8_EENT_3sigINS6_5tupleIRT0_RT1_RT2_RT3_S7_S7_S7_S7_S7_S7_EEE4typeERKNS0_14lambda_functorIS9_EESD_SF_SH_SJ_, symObjAddr: 0x2448, symBinAddr: 0x10000395C, symSize: 0x44 }
  - { offsetInCU: 0x67F, offset: 0x67F, size: 0x8, addend: 0x0, symName: __ZN5boost6lambda6detail6selectIKiS3_KNS_6tuples9null_typeES6_S6_EERT_S8_RT0_RT1_RT2_RT3_, symObjAddr: 0x24B0, symBinAddr: 0x1000039C4, symSize: 0x44 }
  - { offsetInCU: 0xDA0, offset: 0xDA0, size: 0x8, addend: 0x0, symName: __ZN5boost6lambdalsINS0_19lambda_functor_baseINS0_14bitwise_actionINS0_16leftshift_actionEEENS_6tuples5tupleIRNSt3__113basic_ostreamIcNS8_11char_traitsIcEEEENS0_14lambda_functorINS2_INS0_17arithmetic_actionINS0_15multiply_actionEEENS7_INSE_INS0_11placeholderILi1EEEEEKiNS6_9null_typeESM_SM_SM_SM_SM_SM_SM_EEEEEESM_SM_SM_SM_SM_SM_SM_SM_EEEEA2_cEEKNSE_INS2_IS5_NS7_INSE_IT_EENS0_19const_copy_argumentIKT0_E4typeESM_SM_SM_SM_SM_SM_SM_SM_EEEEEERKSU_RSX_, symObjAddr: 0x224, symBinAddr: 0x100001738, symSize: 0x58 }
  - { offsetInCU: 0xDEC, offset: 0xDEC, size: 0x8, addend: 0x0, symName: __ZN5boost6lambdalsINSt3__113basic_ostreamIcNS2_11char_traitsIcEEEENS0_19lambda_functor_baseINS0_17arithmetic_actionINS0_15multiply_actionEEENS_6tuples5tupleINS0_14lambda_functorINS0_11placeholderILi1EEEEEKiNSB_9null_typeESI_SI_SI_SI_SI_SI_SI_EEEEEEKNSD_INS7_INS0_14bitwise_actionINS0_16leftshift_actionEEENSC_INS0_6detail51convert_ostream_to_ref_others_to_c_plain_by_defaultIT_E4typeENSD_IT0_EESI_SI_SI_SI_SI_SI_SI_SI_EEEEEERSQ_RKSU_, symObjAddr: 0x27C, symBinAddr: 0x100001790, symSize: 0x58 }
  - { offsetInCU: 0xE38, offset: 0xE38, size: 0x8, addend: 0x0, symName: __ZN5boost6lambdamlINS0_11placeholderILi1EEEiEEKNS0_14lambda_functorINS0_19lambda_functor_baseINS0_17arithmetic_actionINS0_15multiply_actionEEENS_6tuples5tupleINS4_IT_EENS0_19const_copy_argumentIKT0_E4typeENS9_9null_typeESI_SI_SI_SI_SI_SI_SI_EEEEEERKSC_RSF_, symObjAddr: 0x2D4, symBinAddr: 0x1000017E8, symSize: 0x58 }
  - { offsetInCU: 0x1557, offset: 0x1557, size: 0x8, addend: 0x0, symName: __ZN5boost6tuples6detail5cnullEv, symObjAddr: 0x630, symBinAddr: 0x100001B44, symSize: 0x4 }
  - { offsetInCU: 0x2B0E, offset: 0x2B0E, size: 0x8, addend: 0x0, symName: __ZN5boost6tuples3getILm0ENS_6lambda14lambda_functorINS2_19lambda_functor_baseINS2_14bitwise_actionINS2_16leftshift_actionEEENS0_5tupleIRNSt3__113basic_ostreamIcNS9_11char_traitsIcEEEENS3_INS4_INS2_17arithmetic_actionINS2_15multiply_actionEEENS8_INS3_INS2_11placeholderILi1EEEEEKiNS0_9null_typeESM_SM_SM_SM_SM_SM_SM_EEEEEESM_SM_SM_SM_SM_SM_SM_SM_EEEEEENS0_4consIRA2_KcSM_EEEENS0_13access_traitsINS0_7elementIXT_ENST_IT0_T1_EEE4typeEE10const_typeERKS12_, symObjAddr: 0x16CC, symBinAddr: 0x100002BE0, symSize: 0x24 }
  - { offsetInCU: 0x2B56, offset: 0x2B56, size: 0x8, addend: 0x0, symName: __ZN5boost6tuples3getILm1ENS_6lambda14lambda_functorINS2_19lambda_functor_baseINS2_14bitwise_actionINS2_16leftshift_actionEEENS0_5tupleIRNSt3__113basic_ostreamIcNS9_11char_traitsIcEEEENS3_INS4_INS2_17arithmetic_actionINS2_15multiply_actionEEENS8_INS3_INS2_11placeholderILi1EEEEEKiNS0_9null_typeESM_SM_SM_SM_SM_SM_SM_EEEEEESM_SM_SM_SM_SM_SM_SM_SM_EEEEEENS0_4consIRA2_KcSM_EEEENS0_13access_traitsINS0_7elementIXT_ENST_IT0_T1_EEE4typeEE10const_typeERKS12_, symObjAddr: 0x1734, symBinAddr: 0x100002C48, symSize: 0x28 }
  - { offsetInCU: 0x2B9E, offset: 0x2B9E, size: 0x8, addend: 0x0, symName: __ZN5boost6tuples3getILm0ERNSt3__113basic_ostreamIcNS2_11char_traitsIcEEEENS0_4consINS_6lambda14lambda_functorINS9_19lambda_functor_baseINS9_17arithmetic_actionINS9_15multiply_actionEEENS0_5tupleINSA_INS9_11placeholderILi1EEEEEKiNS0_9null_typeESK_SK_SK_SK_SK_SK_SK_EEEEEESK_EEEENS0_13access_traitsINS0_7elementIXT_ENS8_IT0_T1_EEE4typeEE10const_typeERKST_, symObjAddr: 0x2308, symBinAddr: 0x10000381C, symSize: 0x28 }
  - { offsetInCU: 0x2BE6, offset: 0x2BE6, size: 0x8, addend: 0x0, symName: __ZN5boost6tuples3getILm1ERNSt3__113basic_ostreamIcNS2_11char_traitsIcEEEENS0_4consINS_6lambda14lambda_functorINS9_19lambda_functor_baseINS9_17arithmetic_actionINS9_15multiply_actionEEENS0_5tupleINSA_INS9_11placeholderILi1EEEEEKiNS0_9null_typeESK_SK_SK_SK_SK_SK_SK_EEEEEESK_EEEENS0_13access_traitsINS0_7elementIXT_ENS8_IT0_T1_EEE4typeEE10const_typeERKST_, symObjAddr: 0x2374, symBinAddr: 0x100003888, symSize: 0x24 }
  - { offsetInCU: 0x2C2E, offset: 0x2C2E, size: 0x8, addend: 0x0, symName: __ZN5boost6tuples3getILm0ENS_6lambda14lambda_functorINS2_11placeholderILi1EEEEENS0_4consIKiNS0_9null_typeEEEEENS0_13access_traitsINS0_7elementIXT_ENS7_IT0_T1_EEE4typeEE10const_typeERKSF_, symObjAddr: 0x248C, symBinAddr: 0x1000039A0, symSize: 0x24 }
  - { offsetInCU: 0x2C76, offset: 0x2C76, size: 0x8, addend: 0x0, symName: __ZN5boost6tuples3getILm1ENS_6lambda14lambda_functorINS2_11placeholderILi1EEEEENS0_4consIKiNS0_9null_typeEEEEENS0_13access_traitsINS0_7elementIXT_ENS7_IT0_T1_EEE4typeEE10const_typeERKSF_, symObjAddr: 0x24F4, symBinAddr: 0x100003A08, symSize: 0x24 }
  - { offsetInCU: 0x76F9, offset: 0x76F9, size: 0x8, addend: 0x0, symName: __ZNSt3__124__put_character_sequenceB8ue170006IcNS_11char_traitsIcEEEERNS_13basic_ostreamIT_T0_EES7_PKS4_m, symObjAddr: 0x175C, symBinAddr: 0x100002C70, symSize: 0x1EC }
  - { offsetInCU: 0x838A, offset: 0x838A, size: 0x8, addend: 0x0, symName: __ZNSt3__18for_eachB8ue170006INS_16istream_iteratorIicNS_11char_traitsIcEElEEN5boost6lambda14lambda_functorINS6_19lambda_functor_baseINS6_14bitwise_actionINS6_16leftshift_actionEEENS5_6tuples5tupleINS7_INS8_ISB_NSD_IRNS_13basic_ostreamIcS3_EENS7_INS8_INS6_17arithmetic_actionINS6_15multiply_actionEEENSD_INS7_INS6_11placeholderILi1EEEEEKiNSC_9null_typeESO_SO_SO_SO_SO_SO_SO_EEEEEESO_SO_SO_SO_SO_SO_SO_SO_EEEEEERA2_KcSO_SO_SO_SO_SO_SO_SO_SO_EEEEEEEET0_T_S12_S11_, symObjAddr: 0x144, symBinAddr: 0x100001658, symSize: 0x80 }
  - { offsetInCU: 0x83E5, offset: 0x83E5, size: 0x8, addend: 0x0, symName: __ZNSt3__14endlB8ue170006IcNS_11char_traitsIcEEEERNS_13basic_ostreamIT_T0_EES7_, symObjAddr: 0x358, symBinAddr: 0x10000186C, symSize: 0x58 }
  - { offsetInCU: 0x8425, offset: 0x8425, size: 0x8, addend: 0x0, symName: __ZNSt3__1neB8ue170006IicNS_11char_traitsIcEElEEbRKNS_16istream_iteratorIT_T0_T1_T2_EESA_, symObjAddr: 0x1480, symBinAddr: 0x100002994, symSize: 0x34 }
  - { offsetInCU: 0x8483, offset: 0x8483, size: 0x8, addend: 0x0, symName: __ZNSt3__1eqB8ue170006IicNS_11char_traitsIcEElEEbRKNS_16istream_iteratorIT_T0_T1_T2_EESA_, symObjAddr: 0x1594, symBinAddr: 0x100002AA8, symSize: 0x30 }
  - { offsetInCU: 0x84E1, offset: 0x84E1, size: 0x8, addend: 0x0, symName: __ZNSt3__1lsB8ue170006INS_11char_traitsIcEEEERNS_13basic_ostreamIcT_EES6_PKc, symObjAddr: 0x1640, symBinAddr: 0x100002B54, symSize: 0x48 }
  - { offsetInCU: 0x8527, offset: 0x8527, size: 0x8, addend: 0x0, symName: __ZNSt3__116__pad_and_outputB8ue170006IcNS_11char_traitsIcEEEENS_19ostreambuf_iteratorIT_T0_EES6_PKS4_S8_S8_RNS_8ios_baseES4_, symObjAddr: 0x1998, symBinAddr: 0x100002EAC, symSize: 0x240 }
  - { offsetInCU: 0x85F6, offset: 0x85F6, size: 0x8, addend: 0x0, symName: __ZNSt3__112__to_addressB8ue170006IKcEEPT_S3_, symObjAddr: 0x1F0C, symBinAddr: 0x100003420, symSize: 0x14 }
  - { offsetInCU: 0x865E, offset: 0x865E, size: 0x8, addend: 0x0, symName: __ZNSt3__19use_facetB8ue170006INS_5ctypeIcEEEERKT_RKNS_6localeE, symObjAddr: 0x218C, symBinAddr: 0x1000036A0, symSize: 0x2C }
  - { offsetInCU: 0x8B2B, offset: 0x8B2B, size: 0x8, addend: 0x0, symName: __ZNSt3__118__constexpr_strlenB8ue170006EPKc, symObjAddr: 0x2224, symBinAddr: 0x100003738, symSize: 0x24 }
  - { offsetInCU: 0x8EAA, offset: 0x8EAA, size: 0x8, addend: 0x0, symName: _main, symObjAddr: 0x84, symBinAddr: 0x100001598, symSize: 0xC0 }
  - { offsetInCU: 0xB4D1, offset: 0xB4D1, size: 0x8, addend: 0x0, symName: __ZN5boost6lambda14lambda_functorINS0_11placeholderILi1EEEEC1Ev, symObjAddr: 0x0, symBinAddr: 0x100001514, symSize: 0x2C }
  - { offsetInCU: 0xB4F9, offset: 0xB4F9, size: 0x8, addend: 0x0, symName: __ZN5boost6lambda14lambda_functorINS0_11placeholderILi2EEEEC1Ev, symObjAddr: 0x2C, symBinAddr: 0x100001540, symSize: 0x2C }
  - { offsetInCU: 0xB521, offset: 0xB521, size: 0x8, addend: 0x0, symName: __ZN5boost6lambda14lambda_functorINS0_11placeholderILi4EEEEC1Ev, symObjAddr: 0x58, symBinAddr: 0x10000156C, symSize: 0x2C }
  - { offsetInCU: 0xB549, offset: 0xB549, size: 0x8, addend: 0x0, symName: __ZNSt3__116istream_iteratorIicNS_11char_traitsIcEElEC1B8ue170006ERNS_13basic_istreamIcS2_EE, symObjAddr: 0x1C4, symBinAddr: 0x1000016D8, symSize: 0x34 }
  - { offsetInCU: 0xB57F, offset: 0xB57F, size: 0x8, addend: 0x0, symName: __ZNSt3__116istream_iteratorIicNS_11char_traitsIcEElEC1B8ue170006Ev, symObjAddr: 0x1F8, symBinAddr: 0x10000170C, symSize: 0x2C }
  - { offsetInCU: 0xB5A7, offset: 0xB5A7, size: 0x8, addend: 0x0, symName: __ZNSt3__113basic_ostreamIcNS_11char_traitsIcEEElsB8ue170006EPFRS3_S4_E, symObjAddr: 0x32C, symBinAddr: 0x100001840, symSize: 0x2C }
  - { offsetInCU: 0xB5D9, offset: 0xB5D9, size: 0x8, addend: 0x0, symName: __ZNSt3__116istream_iteratorIicNS_11char_traitsIcEElEC2B8ue170006Ev, symObjAddr: 0x3B0, symBinAddr: 0x1000018C4, symSize: 0x1C }
  - { offsetInCU: 0xB601, offset: 0xB601, size: 0x8, addend: 0x0, symName: __ZN5boost6lambda14lambda_functorINS0_11placeholderILi1EEEEC2Ev, symObjAddr: 0x3CC, symBinAddr: 0x1000018E0, symSize: 0x14 }
  - { offsetInCU: 0xB629, offset: 0xB629, size: 0x8, addend: 0x0, symName: __ZN5boost6lambda14lambda_functorINS0_11placeholderILi2EEEEC2Ev, symObjAddr: 0x3E0, symBinAddr: 0x1000018F4, symSize: 0x14 }
  - { offsetInCU: 0xB651, offset: 0xB651, size: 0x8, addend: 0x0, symName: __ZN5boost6lambda14lambda_functorINS0_11placeholderILi4EEEEC2Ev, symObjAddr: 0x3F4, symBinAddr: 0x100001908, symSize: 0x14 }
  - { offsetInCU: 0xB679, offset: 0xB679, size: 0x8, addend: 0x0, symName: __ZNSt3__116istream_iteratorIicNS_11char_traitsIcEElEC2B8ue170006ERNS_13basic_istreamIcS2_EE, symObjAddr: 0x408, symBinAddr: 0x10000191C, symSize: 0x6C }
  - { offsetInCU: 0xB6AF, offset: 0xB6AF, size: 0x8, addend: 0x0, symName: __ZNKSt3__19basic_iosIcNS_11char_traitsIcEEEntB8ue170006Ev, symObjAddr: 0x474, symBinAddr: 0x100001988, symSize: 0x28 }
  - { offsetInCU: 0xB6D3, offset: 0xB6D3, size: 0x8, addend: 0x0, symName: __ZNKSt3__19basic_iosIcNS_11char_traitsIcEEE4failB8ue170006Ev, symObjAddr: 0x49C, symBinAddr: 0x1000019B0, symSize: 0x28 }
  - { offsetInCU: 0xB6F8, offset: 0xB6F8, size: 0x8, addend: 0x0, symName: __ZNKSt3__18ios_base4failB8ue170006Ev, symObjAddr: 0x4C4, symBinAddr: 0x1000019D8, symSize: 0x28 }
  - { offsetInCU: 0xB71D, offset: 0xB71D, size: 0x8, addend: 0x0, symName: __ZN5boost6tuples5tupleINS_6lambda14lambda_functorINS2_11placeholderILi1EEEEEKiNS0_9null_typeES8_S8_S8_S8_S8_S8_S8_EC1ERKS6_RS7_, symObjAddr: 0x4EC, symBinAddr: 0x100001A00, symSize: 0x3C }
  - { offsetInCU: 0xB763, offset: 0xB763, size: 0x8, addend: 0x0, symName: __ZN5boost6lambda19lambda_functor_baseINS0_17arithmetic_actionINS0_15multiply_actionEEENS_6tuples5tupleINS0_14lambda_functorINS0_11placeholderILi1EEEEEKiNS5_9null_typeESC_SC_SC_SC_SC_SC_SC_EEEC1ERKSD_, symObjAddr: 0x528, symBinAddr: 0x100001A3C, symSize: 0x34 }
  - { offsetInCU: 0xB799, offset: 0xB799, size: 0x8, addend: 0x0, symName: __ZN5boost6lambda14lambda_functorINS0_19lambda_functor_baseINS0_17arithmetic_actionINS0_15multiply_actionEEENS_6tuples5tupleINS1_INS0_11placeholderILi1EEEEEKiNS6_9null_typeESC_SC_SC_SC_SC_SC_SC_EEEEEC1ERKSE_, symObjAddr: 0x55C, symBinAddr: 0x100001A70, symSize: 0x34 }
  - { offsetInCU: 0xB7CF, offset: 0xB7CF, size: 0x8, addend: 0x0, symName: __ZN5boost6tuples5tupleINS_6lambda14lambda_functorINS2_11placeholderILi1EEEEEKiNS0_9null_typeES8_S8_S8_S8_S8_S8_S8_EC2ERKS6_RS7_, symObjAddr: 0x590, symBinAddr: 0x100001AA4, symSize: 0xA0 }
  - { offsetInCU: 0xB815, offset: 0xB815, size: 0x8, addend: 0x0, symName: __ZN5boost6tuples4consINS_6lambda14lambda_functorINS2_11placeholderILi1EEEEENS1_IKiNS0_9null_typeEEEEC2IKS6_S7_KS8_SD_SD_SD_SD_SD_SD_SD_EERT_RT0_RT1_RT2_RT3_RT4_RT5_RT6_RT7_RT8_, symObjAddr: 0x634, symBinAddr: 0x100001B48, symSize: 0xF4 }
  - { offsetInCU: 0xB930, offset: 0xB930, size: 0x8, addend: 0x0, symName: __ZN5boost6lambda14lambda_functorINS0_11placeholderILi1EEEEC1ERKS4_, symObjAddr: 0x728, symBinAddr: 0x100001C3C, symSize: 0x34 }
  - { offsetInCU: 0xB966, offset: 0xB966, size: 0x8, addend: 0x0, symName: __ZN5boost6tuples4consIKiNS0_9null_typeEEC1IS2_EERT_RKS3_S9_S9_S9_S9_S9_S9_S9_S9_, symObjAddr: 0x75C, symBinAddr: 0x100001C70, symSize: 0x98 }
  - { offsetInCU: 0xBA0A, offset: 0xBA0A, size: 0x8, addend: 0x0, symName: __ZN5boost6lambda14lambda_functorINS0_11placeholderILi1EEEEC2ERKS4_, symObjAddr: 0x7F4, symBinAddr: 0x100001D08, symSize: 0x18 }
  - { offsetInCU: 0xBA40, offset: 0xBA40, size: 0x8, addend: 0x0, symName: __ZN5boost6tuples4consIKiNS0_9null_typeEEC2IS2_EERT_RKS3_S9_S9_S9_S9_S9_S9_S9_S9_, symObjAddr: 0x80C, symBinAddr: 0x100001D20, symSize: 0x54 }
  - { offsetInCU: 0xBAE7, offset: 0xBAE7, size: 0x8, addend: 0x0, symName: __ZN5boost6lambda19lambda_functor_baseINS0_17arithmetic_actionINS0_15multiply_actionEEENS_6tuples5tupleINS0_14lambda_functorINS0_11placeholderILi1EEEEEKiNS5_9null_typeESC_SC_SC_SC_SC_SC_SC_EEEC2ERKSD_, symObjAddr: 0x860, symBinAddr: 0x100001D74, symSize: 0x34 }
  - { offsetInCU: 0xBB1E, offset: 0xBB1E, size: 0x8, addend: 0x0, symName: __ZN5boost6tuples5tupleINS_6lambda14lambda_functorINS2_11placeholderILi1EEEEEKiNS0_9null_typeES8_S8_S8_S8_S8_S8_S8_EC1ERKS9_, symObjAddr: 0x894, symBinAddr: 0x100001DA8, symSize: 0x34 }
  - { offsetInCU: 0xBB53, offset: 0xBB53, size: 0x8, addend: 0x0, symName: __ZN5boost6tuples5tupleINS_6lambda14lambda_functorINS2_11placeholderILi1EEEEEKiNS0_9null_typeES8_S8_S8_S8_S8_S8_S8_EC2ERKS9_, symObjAddr: 0x8C8, symBinAddr: 0x100001DDC, symSize: 0x34 }
  - { offsetInCU: 0xBB87, offset: 0xBB87, size: 0x8, addend: 0x0, symName: __ZN5boost6tuples4consINS_6lambda14lambda_functorINS2_11placeholderILi1EEEEENS1_IKiNS0_9null_typeEEEEC2ERKSA_, symObjAddr: 0x8FC, symBinAddr: 0x100001E10, symSize: 0x48 }
  - { offsetInCU: 0xBBBE, offset: 0xBBBE, size: 0x8, addend: 0x0, symName: __ZN5boost6tuples4consIKiNS0_9null_typeEEC1ERKS4_, symObjAddr: 0x944, symBinAddr: 0x100001E58, symSize: 0x34 }
  - { offsetInCU: 0xBBF5, offset: 0xBBF5, size: 0x8, addend: 0x0, symName: __ZN5boost6tuples4consIKiNS0_9null_typeEEC2ERKS4_, symObjAddr: 0x978, symBinAddr: 0x100001E8C, symSize: 0x24 }
  - { offsetInCU: 0xBC2C, offset: 0xBC2C, size: 0x8, addend: 0x0, symName: __ZN5boost6lambda14lambda_functorINS0_19lambda_functor_baseINS0_17arithmetic_actionINS0_15multiply_actionEEENS_6tuples5tupleINS1_INS0_11placeholderILi1EEEEEKiNS6_9null_typeESC_SC_SC_SC_SC_SC_SC_EEEEEC2ERKSE_, symObjAddr: 0x99C, symBinAddr: 0x100001EB0, symSize: 0x34 }
  - { offsetInCU: 0xBC63, offset: 0xBC63, size: 0x8, addend: 0x0, symName: __ZN5boost6lambda19lambda_functor_baseINS0_17arithmetic_actionINS0_15multiply_actionEEENS_6tuples5tupleINS0_14lambda_functorINS0_11placeholderILi1EEEEEKiNS5_9null_typeESC_SC_SC_SC_SC_SC_SC_EEEC2ERKSE_, symObjAddr: 0x9D0, symBinAddr: 0x100001EE4, symSize: 0x34 }
  - { offsetInCU: 0xBC96, offset: 0xBC96, size: 0x8, addend: 0x0, symName: __ZN5boost6tuples5tupleIRNSt3__113basic_ostreamIcNS2_11char_traitsIcEEEENS_6lambda14lambda_functorINS8_19lambda_functor_baseINS8_17arithmetic_actionINS8_15multiply_actionEEENS1_INS9_INS8_11placeholderILi1EEEEEKiNS0_9null_typeESI_SI_SI_SI_SI_SI_SI_EEEEEESI_SI_SI_SI_SI_SI_SI_SI_EC1ES7_RKSL_, symObjAddr: 0xA04, symBinAddr: 0x100001F18, symSize: 0x3C }
  - { offsetInCU: 0xBCDC, offset: 0xBCDC, size: 0x8, addend: 0x0, symName: __ZN5boost6lambda19lambda_functor_baseINS0_14bitwise_actionINS0_16leftshift_actionEEENS_6tuples5tupleIRNSt3__113basic_ostreamIcNS7_11char_traitsIcEEEENS0_14lambda_functorINS1_INS0_17arithmetic_actionINS0_15multiply_actionEEENS6_INSD_INS0_11placeholderILi1EEEEEKiNS5_9null_typeESL_SL_SL_SL_SL_SL_SL_EEEEEESL_SL_SL_SL_SL_SL_SL_SL_EEEC1ERKSP_, symObjAddr: 0xA40, symBinAddr: 0x100001F54, symSize: 0x34 }
  - { offsetInCU: 0xBD12, offset: 0xBD12, size: 0x8, addend: 0x0, symName: __ZN5boost6lambda14lambda_functorINS0_19lambda_functor_baseINS0_14bitwise_actionINS0_16leftshift_actionEEENS_6tuples5tupleIRNSt3__113basic_ostreamIcNS8_11char_traitsIcEEEENS1_INS2_INS0_17arithmetic_actionINS0_15multiply_actionEEENS7_INS1_INS0_11placeholderILi1EEEEEKiNS6_9null_typeESL_SL_SL_SL_SL_SL_SL_EEEEEESL_SL_SL_SL_SL_SL_SL_SL_EEEEEC1ERKSQ_, symObjAddr: 0xA74, symBinAddr: 0x100001F88, symSize: 0x34 }
  - { offsetInCU: 0xBD48, offset: 0xBD48, size: 0x8, addend: 0x0, symName: __ZN5boost6tuples5tupleIRNSt3__113basic_ostreamIcNS2_11char_traitsIcEEEENS_6lambda14lambda_functorINS8_19lambda_functor_baseINS8_17arithmetic_actionINS8_15multiply_actionEEENS1_INS9_INS8_11placeholderILi1EEEEEKiNS0_9null_typeESI_SI_SI_SI_SI_SI_SI_EEEEEESI_SI_SI_SI_SI_SI_SI_SI_EC2ES7_RKSL_, symObjAddr: 0xAA8, symBinAddr: 0x100001FBC, symSize: 0xA0 }
  - { offsetInCU: 0xBD8E, offset: 0xBD8E, size: 0x8, addend: 0x0, symName: __ZN5boost6tuples4consIRNSt3__113basic_ostreamIcNS2_11char_traitsIcEEEENS1_INS_6lambda14lambda_functorINS8_19lambda_functor_baseINS8_17arithmetic_actionINS8_15multiply_actionEEENS0_5tupleINS9_INS8_11placeholderILi1EEEEEKiNS0_9null_typeESJ_SJ_SJ_SJ_SJ_SJ_SJ_EEEEEESJ_EEEC2IS6_KSM_KSJ_SR_SR_SR_SR_SR_SR_SR_EERT_RT0_RT1_RT2_RT3_RT4_RT5_RT6_RT7_RT8_, symObjAddr: 0xB48, symBinAddr: 0x10000205C, symSize: 0xF4 }
  - { offsetInCU: 0xBEA9, offset: 0xBEA9, size: 0x8, addend: 0x0, symName: __ZN5boost6tuples4consINS_6lambda14lambda_functorINS2_19lambda_functor_baseINS2_17arithmetic_actionINS2_15multiply_actionEEENS0_5tupleINS3_INS2_11placeholderILi1EEEEEKiNS0_9null_typeESD_SD_SD_SD_SD_SD_SD_EEEEEESD_EC1IKSG_EERT_RKSD_SN_SN_SN_SN_SN_SN_SN_SN_, symObjAddr: 0xC3C, symBinAddr: 0x100002150, symSize: 0x98 }
  - { offsetInCU: 0xBF4D, offset: 0xBF4D, size: 0x8, addend: 0x0, symName: __ZN5boost6tuples4consINS_6lambda14lambda_functorINS2_19lambda_functor_baseINS2_17arithmetic_actionINS2_15multiply_actionEEENS0_5tupleINS3_INS2_11placeholderILi1EEEEEKiNS0_9null_typeESD_SD_SD_SD_SD_SD_SD_EEEEEESD_EC2IKSG_EERT_RKSD_SN_SN_SN_SN_SN_SN_SN_SN_, symObjAddr: 0xCD4, symBinAddr: 0x1000021E8, symSize: 0x64 }
  - { offsetInCU: 0xBFF0, offset: 0xBFF0, size: 0x8, addend: 0x0, symName: __ZN5boost6lambda14lambda_functorINS0_19lambda_functor_baseINS0_17arithmetic_actionINS0_15multiply_actionEEENS_6tuples5tupleINS1_INS0_11placeholderILi1EEEEEKiNS6_9null_typeESC_SC_SC_SC_SC_SC_SC_EEEEEC1ERKSF_, symObjAddr: 0xD38, symBinAddr: 0x10000224C, symSize: 0x34 }
  - { offsetInCU: 0xC026, offset: 0xC026, size: 0x8, addend: 0x0, symName: __ZN5boost6lambda14lambda_functorINS0_19lambda_functor_baseINS0_17arithmetic_actionINS0_15multiply_actionEEENS_6tuples5tupleINS1_INS0_11placeholderILi1EEEEEKiNS6_9null_typeESC_SC_SC_SC_SC_SC_SC_EEEEEC2ERKSF_, symObjAddr: 0xD6C, symBinAddr: 0x100002280, symSize: 0x34 }
  - { offsetInCU: 0xC05C, offset: 0xC05C, size: 0x8, addend: 0x0, symName: __ZN5boost6lambda19lambda_functor_baseINS0_14bitwise_actionINS0_16leftshift_actionEEENS_6tuples5tupleIRNSt3__113basic_ostreamIcNS7_11char_traitsIcEEEENS0_14lambda_functorINS1_INS0_17arithmetic_actionINS0_15multiply_actionEEENS6_INSD_INS0_11placeholderILi1EEEEEKiNS5_9null_typeESL_SL_SL_SL_SL_SL_SL_EEEEEESL_SL_SL_SL_SL_SL_SL_SL_EEEC2ERKSP_, symObjAddr: 0xDA0, symBinAddr: 0x1000022B4, symSize: 0x34 }
  - { offsetInCU: 0xC093, offset: 0xC093, size: 0x8, addend: 0x0, symName: __ZN5boost6tuples5tupleIRNSt3__113basic_ostreamIcNS2_11char_traitsIcEEEENS_6lambda14lambda_functorINS8_19lambda_functor_baseINS8_17arithmetic_actionINS8_15multiply_actionEEENS1_INS9_INS8_11placeholderILi1EEEEEKiNS0_9null_typeESI_SI_SI_SI_SI_SI_SI_EEEEEESI_SI_SI_SI_SI_SI_SI_SI_EC1ERKSM_, symObjAddr: 0xDD4, symBinAddr: 0x1000022E8, symSize: 0x34 }
  - { offsetInCU: 0xC0C8, offset: 0xC0C8, size: 0x8, addend: 0x0, symName: __ZN5boost6tuples5tupleIRNSt3__113basic_ostreamIcNS2_11char_traitsIcEEEENS_6lambda14lambda_functorINS8_19lambda_functor_baseINS8_17arithmetic_actionINS8_15multiply_actionEEENS1_INS9_INS8_11placeholderILi1EEEEEKiNS0_9null_typeESI_SI_SI_SI_SI_SI_SI_EEEEEESI_SI_SI_SI_SI_SI_SI_SI_EC2ERKSM_, symObjAddr: 0xE08, symBinAddr: 0x10000231C, symSize: 0x34 }
  - { offsetInCU: 0xC0FC, offset: 0xC0FC, size: 0x8, addend: 0x0, symName: __ZN5boost6tuples4consIRNSt3__113basic_ostreamIcNS2_11char_traitsIcEEEENS1_INS_6lambda14lambda_functorINS8_19lambda_functor_baseINS8_17arithmetic_actionINS8_15multiply_actionEEENS0_5tupleINS9_INS8_11placeholderILi1EEEEEKiNS0_9null_typeESJ_SJ_SJ_SJ_SJ_SJ_SJ_EEEEEESJ_EEEC2ERKSO_, symObjAddr: 0xE3C, symBinAddr: 0x100002350, symSize: 0x48 }
  - { offsetInCU: 0xC133, offset: 0xC133, size: 0x8, addend: 0x0, symName: __ZN5boost6tuples4consINS_6lambda14lambda_functorINS2_19lambda_functor_baseINS2_17arithmetic_actionINS2_15multiply_actionEEENS0_5tupleINS3_INS2_11placeholderILi1EEEEEKiNS0_9null_typeESD_SD_SD_SD_SD_SD_SD_EEEEEESD_EC1ERKSH_, symObjAddr: 0xE84, symBinAddr: 0x100002398, symSize: 0x34 }
  - { offsetInCU: 0xC16A, offset: 0xC16A, size: 0x8, addend: 0x0, symName: __ZN5boost6tuples4consINS_6lambda14lambda_functorINS2_19lambda_functor_baseINS2_17arithmetic_actionINS2_15multiply_actionEEENS0_5tupleINS3_INS2_11placeholderILi1EEEEEKiNS0_9null_typeESD_SD_SD_SD_SD_SD_SD_EEEEEESD_EC2ERKSH_, symObjAddr: 0xEB8, symBinAddr: 0x1000023CC, symSize: 0x34 }
  - { offsetInCU: 0xC1A1, offset: 0xC1A1, size: 0x8, addend: 0x0, symName: __ZN5boost6lambda14lambda_functorINS0_19lambda_functor_baseINS0_14bitwise_actionINS0_16leftshift_actionEEENS_6tuples5tupleIRNSt3__113basic_ostreamIcNS8_11char_traitsIcEEEENS1_INS2_INS0_17arithmetic_actionINS0_15multiply_actionEEENS7_INS1_INS0_11placeholderILi1EEEEEKiNS6_9null_typeESL_SL_SL_SL_SL_SL_SL_EEEEEESL_SL_SL_SL_SL_SL_SL_SL_EEEEEC2ERKSQ_, symObjAddr: 0xEEC, symBinAddr: 0x100002400, symSize: 0x34 }
  - { offsetInCU: 0xC1D8, offset: 0xC1D8, size: 0x8, addend: 0x0, symName: __ZN5boost6lambda19lambda_functor_baseINS0_14bitwise_actionINS0_16leftshift_actionEEENS_6tuples5tupleIRNSt3__113basic_ostreamIcNS7_11char_traitsIcEEEENS0_14lambda_functorINS1_INS0_17arithmetic_actionINS0_15multiply_actionEEENS6_INSD_INS0_11placeholderILi1EEEEEKiNS5_9null_typeESL_SL_SL_SL_SL_SL_SL_EEEEEESL_SL_SL_SL_SL_SL_SL_SL_EEEC2ERKSQ_, symObjAddr: 0xF20, symBinAddr: 0x100002434, symSize: 0x34 }
  - { offsetInCU: 0xC20B, offset: 0xC20B, size: 0x8, addend: 0x0, symName: __ZN5boost6tuples5tupleINS_6lambda14lambda_functorINS2_19lambda_functor_baseINS2_14bitwise_actionINS2_16leftshift_actionEEENS1_IRNSt3__113basic_ostreamIcNS8_11char_traitsIcEEEENS3_INS4_INS2_17arithmetic_actionINS2_15multiply_actionEEENS1_INS3_INS2_11placeholderILi1EEEEEKiNS0_9null_typeESL_SL_SL_SL_SL_SL_SL_EEEEEESL_SL_SL_SL_SL_SL_SL_SL_EEEEEERA2_KcSL_SL_SL_SL_SL_SL_SL_SL_EC1ERKSR_SU_, symObjAddr: 0xF54, symBinAddr: 0x100002468, symSize: 0x3C }
  - { offsetInCU: 0xC251, offset: 0xC251, size: 0x8, addend: 0x0, symName: __ZN5boost6lambda19lambda_functor_baseINS0_14bitwise_actionINS0_16leftshift_actionEEENS_6tuples5tupleINS0_14lambda_functorINS1_IS4_NS6_IRNSt3__113basic_ostreamIcNS8_11char_traitsIcEEEENS7_INS1_INS0_17arithmetic_actionINS0_15multiply_actionEEENS6_INS7_INS0_11placeholderILi1EEEEEKiNS5_9null_typeESL_SL_SL_SL_SL_SL_SL_EEEEEESL_SL_SL_SL_SL_SL_SL_SL_EEEEEERA2_KcSL_SL_SL_SL_SL_SL_SL_SL_EEEC1ERKSV_, symObjAddr: 0xF90, symBinAddr: 0x1000024A4, symSize: 0x34 }
  - { offsetInCU: 0xC2A5, offset: 0xC2A5, size: 0x8, addend: 0x0, symName: __ZN5boost6lambda14lambda_functorINS0_19lambda_functor_baseINS0_14bitwise_actionINS0_16leftshift_actionEEENS_6tuples5tupleINS1_INS2_IS5_NS7_IRNSt3__113basic_ostreamIcNS8_11char_traitsIcEEEENS1_INS2_INS0_17arithmetic_actionINS0_15multiply_actionEEENS7_INS1_INS0_11placeholderILi1EEEEEKiNS6_9null_typeESL_SL_SL_SL_SL_SL_SL_EEEEEESL_SL_SL_SL_SL_SL_SL_SL_EEEEEERA2_KcSL_SL_SL_SL_SL_SL_SL_SL_EEEEEC1ERKSW_, symObjAddr: 0xFC4, symBinAddr: 0x1000024D8, symSize: 0x34 }
  - { offsetInCU: 0xC2DB, offset: 0xC2DB, size: 0x8, addend: 0x0, symName: __ZN5boost6tuples5tupleINS_6lambda14lambda_functorINS2_19lambda_functor_baseINS2_14bitwise_actionINS2_16leftshift_actionEEENS1_IRNSt3__113basic_ostreamIcNS8_11char_traitsIcEEEENS3_INS4_INS2_17arithmetic_actionINS2_15multiply_actionEEENS1_INS3_INS2_11placeholderILi1EEEEEKiNS0_9null_typeESL_SL_SL_SL_SL_SL_SL_EEEEEESL_SL_SL_SL_SL_SL_SL_SL_EEEEEERA2_KcSL_SL_SL_SL_SL_SL_SL_SL_EC2ERKSR_SU_, symObjAddr: 0xFF8, symBinAddr: 0x10000250C, symSize: 0xA0 }
  - { offsetInCU: 0xC321, offset: 0xC321, size: 0x8, addend: 0x0, symName: __ZN5boost6tuples4consINS_6lambda14lambda_functorINS2_19lambda_functor_baseINS2_14bitwise_actionINS2_16leftshift_actionEEENS0_5tupleIRNSt3__113basic_ostreamIcNS9_11char_traitsIcEEEENS3_INS4_INS2_17arithmetic_actionINS2_15multiply_actionEEENS8_INS3_INS2_11placeholderILi1EEEEEKiNS0_9null_typeESM_SM_SM_SM_SM_SM_SM_EEEEEESM_SM_SM_SM_SM_SM_SM_SM_EEEEEENS1_IRA2_KcSM_EEEC2IKSS_SU_KSM_S10_S10_S10_S10_S10_S10_S10_EERT_RT0_RT1_RT2_RT3_RT4_RT5_RT6_RT7_RT8_, symObjAddr: 0x1098, symBinAddr: 0x1000025AC, symSize: 0xF4 }
  - { offsetInCU: 0xC43C, offset: 0xC43C, size: 0x8, addend: 0x0, symName: __ZN5boost6lambda14lambda_functorINS0_19lambda_functor_baseINS0_14bitwise_actionINS0_16leftshift_actionEEENS_6tuples5tupleIRNSt3__113basic_ostreamIcNS8_11char_traitsIcEEEENS1_INS2_INS0_17arithmetic_actionINS0_15multiply_actionEEENS7_INS1_INS0_11placeholderILi1EEEEEKiNS6_9null_typeESL_SL_SL_SL_SL_SL_SL_EEEEEESL_SL_SL_SL_SL_SL_SL_SL_EEEEEC1ERKSR_, symObjAddr: 0x118C, symBinAddr: 0x1000026A0, symSize: 0x34 }
  - { offsetInCU: 0xC472, offset: 0xC472, size: 0x8, addend: 0x0, symName: __ZN5boost6tuples4consIRA2_KcNS0_9null_typeEEC1IS3_EERT_RKS5_SB_SB_SB_SB_SB_SB_SB_SB_, symObjAddr: 0x11C0, symBinAddr: 0x1000026D4, symSize: 0x98 }
  - { offsetInCU: 0xC516, offset: 0xC516, size: 0x8, addend: 0x0, symName: __ZN5boost6lambda14lambda_functorINS0_19lambda_functor_baseINS0_14bitwise_actionINS0_16leftshift_actionEEENS_6tuples5tupleIRNSt3__113basic_ostreamIcNS8_11char_traitsIcEEEENS1_INS2_INS0_17arithmetic_actionINS0_15multiply_actionEEENS7_INS1_INS0_11placeholderILi1EEEEEKiNS6_9null_typeESL_SL_SL_SL_SL_SL_SL_EEEEEESL_SL_SL_SL_SL_SL_SL_SL_EEEEEC2ERKSR_, symObjAddr: 0x1258, symBinAddr: 0x10000276C, symSize: 0x34 }
  - { offsetInCU: 0xC54C, offset: 0xC54C, size: 0x8, addend: 0x0, symName: __ZN5boost6tuples4consIRA2_KcNS0_9null_typeEEC2IS3_EERT_RKS5_SB_SB_SB_SB_SB_SB_SB_SB_, symObjAddr: 0x128C, symBinAddr: 0x1000027A0, symSize: 0x50 }
  - { offsetInCU: 0xC5F3, offset: 0xC5F3, size: 0x8, addend: 0x0, symName: __ZN5boost6lambda19lambda_functor_baseINS0_14bitwise_actionINS0_16leftshift_actionEEENS_6tuples5tupleINS0_14lambda_functorINS1_IS4_NS6_IRNSt3__113basic_ostreamIcNS8_11char_traitsIcEEEENS7_INS1_INS0_17arithmetic_actionINS0_15multiply_actionEEENS6_INS7_INS0_11placeholderILi1EEEEEKiNS5_9null_typeESL_SL_SL_SL_SL_SL_SL_EEEEEESL_SL_SL_SL_SL_SL_SL_SL_EEEEEERA2_KcSL_SL_SL_SL_SL_SL_SL_SL_EEEC2ERKSV_, symObjAddr: 0x12DC, symBinAddr: 0x1000027F0, symSize: 0x34 }
  - { offsetInCU: 0xC62A, offset: 0xC62A, size: 0x8, addend: 0x0, symName: __ZN5boost6tuples5tupleINS_6lambda14lambda_functorINS2_19lambda_functor_baseINS2_14bitwise_actionINS2_16leftshift_actionEEENS1_IRNSt3__113basic_ostreamIcNS8_11char_traitsIcEEEENS3_INS4_INS2_17arithmetic_actionINS2_15multiply_actionEEENS1_INS3_INS2_11placeholderILi1EEEEEKiNS0_9null_typeESL_SL_SL_SL_SL_SL_SL_EEEEEESL_SL_SL_SL_SL_SL_SL_SL_EEEEEERA2_KcSL_SL_SL_SL_SL_SL_SL_SL_EC1ERKSV_, symObjAddr: 0x1310, symBinAddr: 0x100002824, symSize: 0x34 }
  - { offsetInCU: 0xC65F, offset: 0xC65F, size: 0x8, addend: 0x0, symName: __ZN5boost6tuples5tupleINS_6lambda14lambda_functorINS2_19lambda_functor_baseINS2_14bitwise_actionINS2_16leftshift_actionEEENS1_IRNSt3__113basic_ostreamIcNS8_11char_traitsIcEEEENS3_INS4_INS2_17arithmetic_actionINS2_15multiply_actionEEENS1_INS3_INS2_11placeholderILi1EEEEEKiNS0_9null_typeESL_SL_SL_SL_SL_SL_SL_EEEEEESL_SL_SL_SL_SL_SL_SL_SL_EEEEEERA2_KcSL_SL_SL_SL_SL_SL_SL_SL_EC2ERKSV_, symObjAddr: 0x1344, symBinAddr: 0x100002858, symSize: 0x34 }
  - { offsetInCU: 0xC693, offset: 0xC693, size: 0x8, addend: 0x0, symName: __ZN5boost6tuples4consINS_6lambda14lambda_functorINS2_19lambda_functor_baseINS2_14bitwise_actionINS2_16leftshift_actionEEENS0_5tupleIRNSt3__113basic_ostreamIcNS9_11char_traitsIcEEEENS3_INS4_INS2_17arithmetic_actionINS2_15multiply_actionEEENS8_INS3_INS2_11placeholderILi1EEEEEKiNS0_9null_typeESM_SM_SM_SM_SM_SM_SM_EEEEEESM_SM_SM_SM_SM_SM_SM_SM_EEEEEENS1_IRA2_KcSM_EEEC2ERKSX_, symObjAddr: 0x1378, symBinAddr: 0x10000288C, symSize: 0x48 }
  - { offsetInCU: 0xC6CA, offset: 0xC6CA, size: 0x8, addend: 0x0, symName: __ZN5boost6tuples4consIRA2_KcNS0_9null_typeEEC1ERKS6_, symObjAddr: 0x13C0, symBinAddr: 0x1000028D4, symSize: 0x34 }
  - { offsetInCU: 0xC701, offset: 0xC701, size: 0x8, addend: 0x0, symName: __ZN5boost6tuples4consIRA2_KcNS0_9null_typeEEC2ERKS6_, symObjAddr: 0x13F4, symBinAddr: 0x100002908, symSize: 0x24 }
  - { offsetInCU: 0xC738, offset: 0xC738, size: 0x8, addend: 0x0, symName: __ZN5boost6lambda14lambda_functorINS0_19lambda_functor_baseINS0_14bitwise_actionINS0_16leftshift_actionEEENS_6tuples5tupleINS1_INS2_IS5_NS7_IRNSt3__113basic_ostreamIcNS8_11char_traitsIcEEEENS1_INS2_INS0_17arithmetic_actionINS0_15multiply_actionEEENS7_INS1_INS0_11placeholderILi1EEEEEKiNS6_9null_typeESL_SL_SL_SL_SL_SL_SL_EEEEEESL_SL_SL_SL_SL_SL_SL_SL_EEEEEERA2_KcSL_SL_SL_SL_SL_SL_SL_SL_EEEEEC2ERKSW_, symObjAddr: 0x1418, symBinAddr: 0x10000292C, symSize: 0x34 }
  - { offsetInCU: 0xC76F, offset: 0xC76F, size: 0x8, addend: 0x0, symName: __ZN5boost6lambda19lambda_functor_baseINS0_14bitwise_actionINS0_16leftshift_actionEEENS_6tuples5tupleINS0_14lambda_functorINS1_IS4_NS6_IRNSt3__113basic_ostreamIcNS8_11char_traitsIcEEEENS7_INS1_INS0_17arithmetic_actionINS0_15multiply_actionEEENS6_INS7_INS0_11placeholderILi1EEEEEKiNS5_9null_typeESL_SL_SL_SL_SL_SL_SL_EEEEEESL_SL_SL_SL_SL_SL_SL_SL_EEEEEERA2_KcSL_SL_SL_SL_SL_SL_SL_SL_EEEC2ERKSW_, symObjAddr: 0x144C, symBinAddr: 0x100002960, symSize: 0x34 }
  - { offsetInCU: 0xC7C0, offset: 0xC7C0, size: 0x8, addend: 0x0, symName: __ZNK5boost6lambda14lambda_functorINS0_19lambda_functor_baseINS0_14bitwise_actionINS0_16leftshift_actionEEENS_6tuples5tupleINS1_INS2_IS5_NS7_IRNSt3__113basic_ostreamIcNS8_11char_traitsIcEEEENS1_INS2_INS0_17arithmetic_actionINS0_15multiply_actionEEENS7_INS1_INS0_11placeholderILi1EEEEEKiNS6_9null_typeESL_SL_SL_SL_SL_SL_SL_EEEEEESL_SL_SL_SL_SL_SL_SL_SL_EEEEEERA2_KcSL_SL_SL_SL_SL_SL_SL_SL_EEEEEclIiEENSW_3sigINS7_IRKT_SL_SL_SL_SL_SL_SL_SL_SL_SL_EEE4typeES12_, symObjAddr: 0x14B4, symBinAddr: 0x1000029C8, symSize: 0x3C }
  - { offsetInCU: 0xC7FC, offset: 0xC7FC, size: 0x8, addend: 0x0, symName: __ZNKSt3__116istream_iteratorIicNS_11char_traitsIcEElEdeB8ue170006Ev, symObjAddr: 0x14F0, symBinAddr: 0x100002A04, symSize: 0x18 }
  - { offsetInCU: 0xC820, offset: 0xC820, size: 0x8, addend: 0x0, symName: __ZNSt3__116istream_iteratorIicNS_11char_traitsIcEElEppB8ue170006Ev, symObjAddr: 0x1508, symBinAddr: 0x100002A1C, symSize: 0x58 }
  - { offsetInCU: 0xC844, offset: 0xC844, size: 0x8, addend: 0x0, symName: __ZN5boost6lambda14lambda_functorINS0_19lambda_functor_baseINS0_14bitwise_actionINS0_16leftshift_actionEEENS_6tuples5tupleINS1_INS2_IS5_NS7_IRNSt3__113basic_ostreamIcNS8_11char_traitsIcEEEENS1_INS2_INS0_17arithmetic_actionINS0_15multiply_actionEEENS7_INS1_INS0_11placeholderILi1EEEEEKiNS6_9null_typeESL_SL_SL_SL_SL_SL_SL_EEEEEESL_SL_SL_SL_SL_SL_SL_SL_EEEEEERA2_KcSL_SL_SL_SL_SL_SL_SL_SL_EEEEEC1ERKSX_, symObjAddr: 0x1560, symBinAddr: 0x100002A74, symSize: 0x34 }
  - { offsetInCU: 0xC87F, offset: 0xC87F, size: 0x8, addend: 0x0, symName: __ZNK5boost6lambda19lambda_functor_baseINS0_14bitwise_actionINS0_16leftshift_actionEEENS_6tuples5tupleINS0_14lambda_functorINS1_IS4_NS6_IRNSt3__113basic_ostreamIcNS8_11char_traitsIcEEEENS7_INS1_INS0_17arithmetic_actionINS0_15multiply_actionEEENS6_INS7_INS0_11placeholderILi1EEEEEKiNS5_9null_typeESL_SL_SL_SL_SL_SL_SL_EEEEEESL_SL_SL_SL_SL_SL_SL_SL_EEEEEERA2_KcSL_SL_SL_SL_SL_SL_SL_SL_EEE4callISD_SK_KSL_SY_SY_EET_RT0_RT1_RT2_RT3_, symObjAddr: 0x15C4, symBinAddr: 0x100002AD8, symSize: 0x7C }
  - { offsetInCU: 0xC909, offset: 0xC909, size: 0x8, addend: 0x0, symName: __ZNSt3__111char_traitsIcE6lengthB8ue170006EPKc, symObjAddr: 0x1948, symBinAddr: 0x100002E5C, symSize: 0x34 }
  - { offsetInCU: 0xC945, offset: 0xC945, size: 0x8, addend: 0x0, symName: __ZNKSt3__113basic_ostreamIcNS_11char_traitsIcEEE6sentrycvbB8ue170006Ev, symObjAddr: 0x197C, symBinAddr: 0x100002E90, symSize: 0x1C }
  - { offsetInCU: 0xC969, offset: 0xC969, size: 0x8, addend: 0x0, symName: __ZNSt3__119ostreambuf_iteratorIcNS_11char_traitsIcEEEC1B8ue170006ERNS_13basic_ostreamIcS2_EE, symObjAddr: 0x1BD8, symBinAddr: 0x1000030EC, symSize: 0x34 }
  - { offsetInCU: 0xC9A0, offset: 0xC9A0, size: 0x8, addend: 0x0, symName: __ZNKSt3__18ios_base5flagsB8ue170006Ev, symObjAddr: 0x1C0C, symBinAddr: 0x100003120, symSize: 0x18 }
  - { offsetInCU: 0xC9C6, offset: 0xC9C6, size: 0x8, addend: 0x0, symName: __ZNKSt3__19basic_iosIcNS_11char_traitsIcEEE4fillB8ue170006Ev, symObjAddr: 0x1C24, symBinAddr: 0x100003138, symSize: 0x64 }
  - { offsetInCU: 0xC9ED, offset: 0xC9ED, size: 0x8, addend: 0x0, symName: __ZNKSt3__119ostreambuf_iteratorIcNS_11char_traitsIcEEE6failedB8ue170006Ev, symObjAddr: 0x1C88, symBinAddr: 0x10000319C, symSize: 0x24 }
  - { offsetInCU: 0xCA11, offset: 0xCA11, size: 0x8, addend: 0x0, symName: __ZNSt3__19basic_iosIcNS_11char_traitsIcEEE8setstateB8ue170006Ej, symObjAddr: 0x1CAC, symBinAddr: 0x1000031C0, symSize: 0x2C }
  - { offsetInCU: 0xCA45, offset: 0xCA45, size: 0x8, addend: 0x0, symName: __ZNKSt3__18ios_base5widthB8ue170006Ev, symObjAddr: 0x1CE4, symBinAddr: 0x1000031F8, symSize: 0x18 }
  - { offsetInCU: 0xCA6A, offset: 0xCA6A, size: 0x8, addend: 0x0, symName: __ZNSt3__115basic_streambufIcNS_11char_traitsIcEEE5sputnB8ue170006EPKcl, symObjAddr: 0x1CFC, symBinAddr: 0x100003210, symSize: 0x3C }
  - { offsetInCU: 0xCAAA, offset: 0xCAAA, size: 0x8, addend: 0x0, symName: __ZNSt3__112basic_stringIcNS_11char_traitsIcEENS_9allocatorIcEEEC1B8ue170006Emc, symObjAddr: 0x1D38, symBinAddr: 0x10000324C, symSize: 0x3C }
  - { offsetInCU: 0xCAF0, offset: 0xCAF0, size: 0x8, addend: 0x0, symName: __ZNKSt3__112basic_stringIcNS_11char_traitsIcEENS_9allocatorIcEEE4dataB8ue170006Ev, symObjAddr: 0x1D74, symBinAddr: 0x100003288, symSize: 0x28 }
  - { offsetInCU: 0xCB15, offset: 0xCB15, size: 0x8, addend: 0x0, symName: __ZNSt3__18ios_base5widthB8ue170006El, symObjAddr: 0x1D9C, symBinAddr: 0x1000032B0, symSize: 0x2C }
  - { offsetInCU: 0xCB58, offset: 0xCB58, size: 0x8, addend: 0x0, symName: __ZNSt3__112basic_stringIcNS_11char_traitsIcEENS_9allocatorIcEEEC2B8ue170006Emc, symObjAddr: 0x1DC8, symBinAddr: 0x1000032DC, symSize: 0x4C }
  - { offsetInCU: 0xCBA3, offset: 0xCBA3, size: 0x8, addend: 0x0, symName: __ZNSt3__117__compressed_pairINS_12basic_stringIcNS_11char_traitsIcEENS_9allocatorIcEEE5__repES5_EC1B8ue170006INS_18__default_init_tagESA_EEOT_OT0_, symObjAddr: 0x1E14, symBinAddr: 0x100003328, symSize: 0x3C }
  - { offsetInCU: 0xCBF9, offset: 0xCBF9, size: 0x8, addend: 0x0, symName: __ZNSt3__117__compressed_pairINS_12basic_stringIcNS_11char_traitsIcEENS_9allocatorIcEEE5__repES5_EC2B8ue170006INS_18__default_init_tagESA_EEOT_OT0_, symObjAddr: 0x1E50, symBinAddr: 0x100003364, symSize: 0x3C }
  - { offsetInCU: 0xCC4F, offset: 0xCC4F, size: 0x8, addend: 0x0, symName: __ZNSt3__122__compressed_pair_elemINS_12basic_stringIcNS_11char_traitsIcEENS_9allocatorIcEEE5__repELi0ELb0EEC2B8ue170006ENS_18__default_init_tagE, symObjAddr: 0x1E8C, symBinAddr: 0x1000033A0, symSize: 0x14 }
  - { offsetInCU: 0xCC81, offset: 0xCC81, size: 0x8, addend: 0x0, symName: __ZNSt3__122__compressed_pair_elemINS_9allocatorIcEELi1ELb1EEC2B8ue170006ENS_18__default_init_tagE, symObjAddr: 0x1EA0, symBinAddr: 0x1000033B4, symSize: 0x2C }
  - { offsetInCU: 0xCCB3, offset: 0xCCB3, size: 0x8, addend: 0x0, symName: __ZNSt3__19allocatorIcEC2B8ue170006Ev, symObjAddr: 0x1ECC, symBinAddr: 0x1000033E0, symSize: 0x2C }
  - { offsetInCU: 0xCCDB, offset: 0xCCDB, size: 0x8, addend: 0x0, symName: __ZNSt3__116__non_trivial_ifILb1ENS_9allocatorIcEEEC2B8ue170006Ev, symObjAddr: 0x1EF8, symBinAddr: 0x10000340C, symSize: 0x14 }
  - { offsetInCU: 0xCD03, offset: 0xCD03, size: 0x8, addend: 0x0, symName: __ZNKSt3__112basic_stringIcNS_11char_traitsIcEENS_9allocatorIcEEE13__get_pointerB8ue170006Ev, symObjAddr: 0x1F20, symBinAddr: 0x100003434, symSize: 0x54 }
  - { offsetInCU: 0xCD27, offset: 0xCD27, size: 0x8, addend: 0x0, symName: __ZNKSt3__112basic_stringIcNS_11char_traitsIcEENS_9allocatorIcEEE9__is_longB8ue170006Ev, symObjAddr: 0x1F74, symBinAddr: 0x100003488, symSize: 0x38 }
  - { offsetInCU: 0xCD4B, offset: 0xCD4B, size: 0x8, addend: 0x0, symName: __ZNKSt3__112basic_stringIcNS_11char_traitsIcEENS_9allocatorIcEEE18__get_long_pointerB8ue170006Ev, symObjAddr: 0x1FAC, symBinAddr: 0x1000034C0, symSize: 0x28 }
  - { offsetInCU: 0xCD6F, offset: 0xCD6F, size: 0x8, addend: 0x0, symName: __ZNKSt3__112basic_stringIcNS_11char_traitsIcEENS_9allocatorIcEEE19__get_short_pointerB8ue170006Ev, symObjAddr: 0x1FD4, symBinAddr: 0x1000034E8, symSize: 0x28 }
  - { offsetInCU: 0xCD93, offset: 0xCD93, size: 0x8, addend: 0x0, symName: __ZNKSt3__117__compressed_pairINS_12basic_stringIcNS_11char_traitsIcEENS_9allocatorIcEEE5__repES5_E5firstB8ue170006Ev, symObjAddr: 0x1FFC, symBinAddr: 0x100003510, symSize: 0x24 }
  - { offsetInCU: 0xCDB8, offset: 0xCDB8, size: 0x8, addend: 0x0, symName: __ZNKSt3__122__compressed_pair_elemINS_12basic_stringIcNS_11char_traitsIcEENS_9allocatorIcEEE5__repELi0ELb0EE5__getB8ue170006Ev, symObjAddr: 0x2020, symBinAddr: 0x100003534, symSize: 0x14 }
  - { offsetInCU: 0xCDDD, offset: 0xCDDD, size: 0x8, addend: 0x0, symName: __ZNSt3__114pointer_traitsIPKcE10pointer_toB8ue170006ERS1_, symObjAddr: 0x2034, symBinAddr: 0x100003548, symSize: 0x14 }
  - { offsetInCU: 0xCDFF, offset: 0xCDFF, size: 0x8, addend: 0x0, symName: __ZNSt3__119ostreambuf_iteratorIcNS_11char_traitsIcEEEC2B8ue170006ERNS_13basic_ostreamIcS2_EE, symObjAddr: 0x2048, symBinAddr: 0x10000355C, symSize: 0x54 }
  - { offsetInCU: 0xCE36, offset: 0xCE36, size: 0x8, addend: 0x0, symName: __ZNKSt3__19basic_iosIcNS_11char_traitsIcEEE5rdbufB8ue170006Ev, symObjAddr: 0x209C, symBinAddr: 0x1000035B0, symSize: 0x24 }
  - { offsetInCU: 0xCE5D, offset: 0xCE5D, size: 0x8, addend: 0x0, symName: __ZNKSt3__18ios_base5rdbufB8ue170006Ev, symObjAddr: 0x20C0, symBinAddr: 0x1000035D4, symSize: 0x18 }
  - { offsetInCU: 0xCE82, offset: 0xCE82, size: 0x8, addend: 0x0, symName: __ZNSt3__111char_traitsIcE11eq_int_typeB8ue170006Eii, symObjAddr: 0x20D8, symBinAddr: 0x1000035EC, symSize: 0x28 }
  - { offsetInCU: 0xCEB5, offset: 0xCEB5, size: 0x8, addend: 0x0, symName: __ZNSt3__111char_traitsIcE3eofB8ue170006Ev, symObjAddr: 0x2100, symBinAddr: 0x100003614, symSize: 0x8 }
  - { offsetInCU: 0xCEC9, offset: 0xCEC9, size: 0x8, addend: 0x0, symName: __ZNKSt3__19basic_iosIcNS_11char_traitsIcEEE5widenB8ue170006Ec, symObjAddr: 0x2108, symBinAddr: 0x10000361C, symSize: 0x84 }
  - { offsetInCU: 0xCF35, offset: 0xCF35, size: 0x8, addend: 0x0, symName: __ZNKSt3__15ctypeIcE5widenB8ue170006Ec, symObjAddr: 0x21B8, symBinAddr: 0x1000036CC, symSize: 0x38 }
  - { offsetInCU: 0xCF69, offset: 0xCF69, size: 0x8, addend: 0x0, symName: __ZNSt3__18ios_base8setstateB8ue170006Ej, symObjAddr: 0x21F0, symBinAddr: 0x100003704, symSize: 0x34 }
  - { offsetInCU: 0xCFA3, offset: 0xCFA3, size: 0x8, addend: 0x0, symName: __ZNK5boost6lambda19lambda_functor_baseINS0_14bitwise_actionINS0_16leftshift_actionEEENS_6tuples5tupleIRNSt3__113basic_ostreamIcNS7_11char_traitsIcEEEENS0_14lambda_functorINS1_INS0_17arithmetic_actionINS0_15multiply_actionEEENS6_INSD_INS0_11placeholderILi1EEEEEKiNS5_9null_typeESL_SL_SL_SL_SL_SL_SL_EEEEEESL_SL_SL_SL_SL_SL_SL_SL_EEE4callISC_SK_KSL_SS_SS_EET_RT0_RT1_RT2_RT3_, symObjAddr: 0x2248, symBinAddr: 0x10000375C, symSize: 0x7C }
  - { offsetInCU: 0xD037, offset: 0xD037, size: 0x8, addend: 0x0, symName: __ZN5boost6tuples6detail10drop_frontILm0EE5applyINS0_4consIRNSt3__113basic_ostreamIcNS6_11char_traitsIcEEEENS5_INS_6lambda14lambda_functorINSC_19lambda_functor_baseINSC_17arithmetic_actionINSC_15multiply_actionEEENS0_5tupleINSD_INSC_11placeholderILi1EEEEEKiNS0_9null_typeESN_SN_SN_SN_SN_SN_SN_EEEEEESN_EEEEE4callERKSS_, symObjAddr: 0x23B4, symBinAddr: 0x1000038C8, symSize: 0x14 }
  - { offsetInCU: 0xD05E, offset: 0xD05E, size: 0x8, addend: 0x0, symName: __ZNK5boost6lambda19lambda_functor_baseINS0_17arithmetic_actionINS0_15multiply_actionEEENS_6tuples5tupleINS0_14lambda_functorINS0_11placeholderILi1EEEEEKiNS5_9null_typeESC_SC_SC_SC_SC_SC_SC_EEE4callIiSB_KSC_SG_SG_EET_RT0_RT1_RT2_RT3_, symObjAddr: 0x23C8, symBinAddr: 0x1000038DC, symSize: 0x80 }
  - { offsetInCU: 0xD0EC, offset: 0xD0EC, size: 0x8, addend: 0x0, symName: __ZNK5boost6lambda11placeholderILi1EE4callIRKiS4_KNS_6tuples9null_typeES8_S8_EET_RT0_RT1_RT2_RT3_, symObjAddr: 0x2518, symBinAddr: 0x100003A2C, symSize: 0x44 }
  - { offsetInCU: 0xD180, offset: 0xD180, size: 0x8, addend: 0x0, symName: __ZN5boost6tuples6detail10drop_frontILm0EE5applyINS0_4consINS_6lambda14lambda_functorINS6_11placeholderILi1EEEEENS5_IKiNS0_9null_typeEEEEEE4callERKSE_, symObjAddr: 0x255C, symBinAddr: 0x100003A70, symSize: 0x14 }
  - { offsetInCU: 0xD1AD, offset: 0xD1AD, size: 0x8, addend: 0x0, symName: __ZN5boost6tuples6detail10drop_frontILm1EE5applyINS0_4consINS_6lambda14lambda_functorINS6_11placeholderILi1EEEEENS5_IKiNS0_9null_typeEEEEEE4callERKSE_, symObjAddr: 0x2570, symBinAddr: 0x100003A84, symSize: 0x28 }
  - { offsetInCU: 0xD1DA, offset: 0xD1DA, size: 0x8, addend: 0x0, symName: __ZN5boost6tuples6detail10drop_frontILm1EE5applyINS0_4consIRNSt3__113basic_ostreamIcNS6_11char_traitsIcEEEENS5_INS_6lambda14lambda_functorINSC_19lambda_functor_baseINSC_17arithmetic_actionINSC_15multiply_actionEEENS0_5tupleINSD_INSC_11placeholderILi1EEEEEKiNS0_9null_typeESN_SN_SN_SN_SN_SN_SN_EEEEEESN_EEEEE4callERKSS_, symObjAddr: 0x2598, symBinAddr: 0x100003AAC, symSize: 0x28 }
  - { offsetInCU: 0xD207, offset: 0xD207, size: 0x8, addend: 0x0, symName: __ZN5boost6tuples6detail10drop_frontILm0EE5applyINS0_4consINS_6lambda14lambda_functorINS6_19lambda_functor_baseINS6_14bitwise_actionINS6_16leftshift_actionEEENS0_5tupleIRNSt3__113basic_ostreamIcNSD_11char_traitsIcEEEENS7_INS8_INS6_17arithmetic_actionINS6_15multiply_actionEEENSC_INS7_INS6_11placeholderILi1EEEEEKiNS0_9null_typeESQ_SQ_SQ_SQ_SQ_SQ_SQ_EEEEEESQ_SQ_SQ_SQ_SQ_SQ_SQ_SQ_EEEEEENS5_IRA2_KcSQ_EEEEE4callERKS11_, symObjAddr: 0x25C0, symBinAddr: 0x100003AD4, symSize: 0x14 }
  - { offsetInCU: 0xD234, offset: 0xD234, size: 0x8, addend: 0x0, symName: __ZN5boost6tuples6detail10drop_frontILm1EE5applyINS0_4consINS_6lambda14lambda_functorINS6_19lambda_functor_baseINS6_14bitwise_actionINS6_16leftshift_actionEEENS0_5tupleIRNSt3__113basic_ostreamIcNSD_11char_traitsIcEEEENS7_INS8_INS6_17arithmetic_actionINS6_15multiply_actionEEENSC_INS7_INS6_11placeholderILi1EEEEEKiNS0_9null_typeESQ_SQ_SQ_SQ_SQ_SQ_SQ_EEEEEESQ_SQ_SQ_SQ_SQ_SQ_SQ_SQ_EEEEEENS5_IRA2_KcSQ_EEEEE4callERKS11_, symObjAddr: 0x25D4, symBinAddr: 0x100003AE8, symSize: 0x28 }
  - { offsetInCU: 0xD256, offset: 0xD256, size: 0x8, addend: 0x0, symName: __ZN5boost6lambda14lambda_functorINS0_19lambda_functor_baseINS0_14bitwise_actionINS0_16leftshift_actionEEENS_6tuples5tupleINS1_INS2_IS5_NS7_IRNSt3__113basic_ostreamIcNS8_11char_traitsIcEEEENS1_INS2_INS0_17arithmetic_actionINS0_15multiply_actionEEENS7_INS1_INS0_11placeholderILi1EEEEEKiNS6_9null_typeESL_SL_SL_SL_SL_SL_SL_EEEEEESL_SL_SL_SL_SL_SL_SL_SL_EEEEEERA2_KcSL_SL_SL_SL_SL_SL_SL_SL_EEEEEC2ERKSX_, symObjAddr: 0x25FC, symBinAddr: 0x100003B10, symSize: 0x34 }
...
